target datalayout = "e-m:e-p270:32:32-p271:32:32-p272:64:64-i64:64-i128:128-f80:128-n8:16:32:64-S128"
target triple = "x86_64-pc-linux-gnu"

%struct.mbedtls_mpi = type { ptr, i16, i16 }
%struct.psa_key_attributes_s = type { i16, i16, i32, %struct.psa_key_policy_s, i32 }
%struct.psa_key_policy_s = type { i32, i32, i32 }

@mbedtls_psa_ffdh_set_prime_generator.dhm_G_2048 = internal constant [1 x i8] c"\02", align 1
@mbedtls_psa_ffdh_set_prime_generator.dhm_G_3072 = internal constant [1 x i8] c"\02", align 1
@mbedtls_psa_ffdh_set_prime_generator.dhm_G_4096 = internal constant [1 x i8] c"\02", align 1
@mbedtls_psa_ffdh_set_prime_generator.dhm_G_6144 = internal constant [1 x i8] c"\02", align 1
@mbedtls_psa_ffdh_set_prime_generator.dhm_G_8192 = internal constant [1 x i8] c"\02", align 1

; Function Attrs: nounwind uwtable
define internal i32 @mbedtls_psa_ffdh_set_prime_generator(i64 noundef %0, ptr noundef %1, ptr noundef %2) #0 {
  %4 = alloca i32, align 4
  %5 = alloca i64, align 8
  %6 = alloca ptr, align 8
  %7 = alloca ptr, align 8
  %8 = alloca ptr, align 8
  %9 = alloca ptr, align 8
  %10 = alloca i64, align 8
  %11 = alloca i64, align 8
  %12 = alloca i32, align 4
  %13 = alloca i32, align 4
  store i64 %0, ptr %5, align 8, !tbaa !10
  store ptr %1, ptr %6, align 8, !tbaa !22
  store ptr %2, ptr %7, align 8, !tbaa !22
  call void @llvm.lifetime.start.p0(i64 8, ptr %8) #6
  store ptr null, ptr %8, align 8, !tbaa !8
  call void @llvm.lifetime.start.p0(i64 8, ptr %9) #6
  store ptr null, ptr %9, align 8, !tbaa !8
  call void @llvm.lifetime.start.p0(i64 8, ptr %10) #6
  store i64 0, ptr %10, align 8, !tbaa !10
  call void @llvm.lifetime.start.p0(i64 8, ptr %11) #6
  store i64 0, ptr %11, align 8, !tbaa !10
  call void @llvm.lifetime.start.p0(i64 4, ptr %12) #6
  store i32 -110, ptr %12, align 4, !tbaa !14
  %14 = load ptr, ptr %6, align 8, !tbaa !22
  %15 = icmp eq ptr %14, null
  br i1 %15, label %16, label %20

16:                                               ; preds = %3
  %17 = load ptr, ptr %7, align 8, !tbaa !22
  %18 = icmp eq ptr %17, null
  br i1 %18, label %19, label %20

19:                                               ; preds = %16
  store i32 -135, ptr %4, align 4
  store i32 1, ptr %13, align 4
  br label %64

20:                                               ; preds = %16, %3
  %21 = load i64, ptr %5, align 8, !tbaa !10
  switch i64 %21, label %27 [
    i64 256, label %22
    i64 384, label %23
    i64 512, label %24
    i64 768, label %25
    i64 1024, label %26
  ]

22:                                               ; preds = %20
  store ptr @mbedtls_psa_ffdh_set_prime_generator.dhm_P_2048, ptr %8, align 8, !tbaa !8
  store ptr @mbedtls_psa_ffdh_set_prime_generator.dhm_G_2048, ptr %9, align 8, !tbaa !8
  store i64 256, ptr %10, align 8, !tbaa !10
  store i64 1, ptr %11, align 8, !tbaa !10
  br label %28

23:                                               ; preds = %20
  store ptr @mbedtls_psa_ffdh_set_prime_generator.dhm_P_3072, ptr %8, align 8, !tbaa !8
  store ptr @mbedtls_psa_ffdh_set_prime_generator.dhm_G_3072, ptr %9, align 8, !tbaa !8
  store i64 384, ptr %10, align 8, !tbaa !10
  store i64 1, ptr %11, align 8, !tbaa !10
  br label %28

24:                                               ; preds = %20
  store ptr @mbedtls_psa_ffdh_set_prime_generator.dhm_P_4096, ptr %8, align 8, !tbaa !8
  store ptr @mbedtls_psa_ffdh_set_prime_generator.dhm_G_4096, ptr %9, align 8, !tbaa !8
  store i64 512, ptr %10, align 8, !tbaa !10
  store i64 1, ptr %11, align 8, !tbaa !10
  br label %28

25:                                               ; preds = %20
  store ptr @mbedtls_psa_ffdh_set_prime_generator.dhm_P_6144, ptr %8, align 8, !tbaa !8
  store ptr @mbedtls_psa_ffdh_set_prime_generator.dhm_G_6144, ptr %9, align 8, !tbaa !8
  store i64 768, ptr %10, align 8, !tbaa !10
  store i64 1, ptr %11, align 8, !tbaa !10
  br label %28

26:                                               ; preds = %20
  store ptr @mbedtls_psa_ffdh_set_prime_generator.dhm_P_8192, ptr %8, align 8, !tbaa !8
  store ptr @mbedtls_psa_ffdh_set_prime_generator.dhm_G_8192, ptr %9, align 8, !tbaa !8
  store i64 1024, ptr %10, align 8, !tbaa !10
  store i64 1, ptr %11, align 8, !tbaa !10
  br label %28

27:                                               ; preds = %20
  store i32 -135, ptr %4, align 4
  store i32 1, ptr %13, align 4
  br label %64

28:                                               ; preds = %26, %25, %24, %23, %22
  %29 = load ptr, ptr %6, align 8, !tbaa !22
  %30 = icmp ne ptr %29, null
  br i1 %30, label %31, label %42

31:                                               ; preds = %28
  br label %32

32:                                               ; preds = %31
  %33 = load ptr, ptr %6, align 8, !tbaa !22
  %34 = load ptr, ptr %8, align 8, !tbaa !8
  %35 = load i64, ptr %10, align 8, !tbaa !10
  %36 = call i32 @mbedtls_mpi_read_binary(ptr noundef %33, ptr noundef %34, i64 noundef %35)
  store i32 %36, ptr %12, align 4, !tbaa !14
  %37 = icmp ne i32 %36, 0
  br i1 %37, label %38, label %39

38:                                               ; preds = %32
  br label %57

39:                                               ; preds = %32
  br label %40

40:                                               ; preds = %39
  br label %41

41:                                               ; preds = %40
  br label %42

42:                                               ; preds = %41, %28
  %43 = load ptr, ptr %7, align 8, !tbaa !22
  %44 = icmp ne ptr %43, null
  br i1 %44, label %45, label %56

45:                                               ; preds = %42
  br label %46

46:                                               ; preds = %45
  %47 = load ptr, ptr %7, align 8, !tbaa !22
  %48 = load ptr, ptr %9, align 8, !tbaa !8
  %49 = load i64, ptr %11, align 8, !tbaa !10
  %50 = call i32 @mbedtls_mpi_read_binary(ptr noundef %47, ptr noundef %48, i64 noundef %49)
  store i32 %50, ptr %12, align 4, !tbaa !14
  %51 = icmp ne i32 %50, 0
  br i1 %51, label %52, label %53

52:                                               ; preds = %46
  br label %57

53:                                               ; preds = %46
  br label %54

54:                                               ; preds = %53
  br label %55

55:                                               ; preds = %54
  br label %56

56:                                               ; preds = %55, %42
  br label %57

57:                                               ; preds = %56, %52, %38
  %58 = load i32, ptr %12, align 4, !tbaa !14
  %59 = icmp ne i32 %58, 0
  br i1 %59, label %60, label %63

60:                                               ; preds = %57
  %61 = load i32, ptr %12, align 4, !tbaa !14
  %62 = call i32 @mbedtls_to_psa_error(i32 noundef %61)
  store i32 %62, ptr %4, align 4
  store i32 1, ptr %13, align 4
  br label %64

63:                                               ; preds = %57
  store i32 0, ptr %4, align 4
  store i32 1, ptr %13, align 4
  br label %64

64:                                               ; preds = %63, %60, %27, %19
  call void @llvm.lifetime.end.p0(i64 4, ptr %12) #6
  call void @llvm.lifetime.end.p0(i64 8, ptr %11) #6
  call void @llvm.lifetime.end.p0(i64 8, ptr %10) #6
  call void @llvm.lifetime.end.p0(i64 8, ptr %9) #6
  call void @llvm.lifetime.end.p0(i64 8, ptr %8) #6
  %65 = load i32, ptr %4, align 4
  ret i32 %65
}

; Function Attrs: nounwind uwtable
define hidden i32 @mbedtls_psa_ffdh_export_public_key(ptr noundef %0, ptr noundef %1, i64 noundef %2, ptr noundef %3, i64 noundef %4, ptr noundef %5) #0 {
  %7 = alloca i32, align 4
  %8 = alloca ptr, align 8
  %9 = alloca ptr, align 8
  %10 = alloca i64, align 8
  %11 = alloca ptr, align 8
  %12 = alloca i64, align 8
  %13 = alloca ptr, align 8
  %14 = alloca i32, align 4
  %15 = alloca i32, align 4
  %16 = alloca %struct.mbedtls_mpi, align 8
  %17 = alloca %struct.mbedtls_mpi, align 8
  %18 = alloca %struct.mbedtls_mpi, align 8
  %19 = alloca %struct.mbedtls_mpi, align 8
  %20 = alloca i16, align 2
  %21 = alloca i32, align 4
  %22 = alloca i64, align 8
  store ptr %0, ptr %8, align 8, !tbaa !3
  store ptr %1, ptr %9, align 8, !tbaa !8
  store i64 %2, ptr %10, align 8, !tbaa !10
  store ptr %3, ptr %11, align 8, !tbaa !8
  store i64 %4, ptr %12, align 8, !tbaa !10
  store ptr %5, ptr %13, align 8, !tbaa !12
  call void @llvm.lifetime.start.p0(i64 4, ptr %14) #6
  store i32 -110, ptr %14, align 4, !tbaa !14
  call void @llvm.lifetime.start.p0(i64 4, ptr %15) #6
  store i32 -151, ptr %15, align 4, !tbaa !14
  call void @llvm.lifetime.start.p0(i64 16, ptr %16) #6
  call void @llvm.lifetime.start.p0(i64 16, ptr %17) #6
  call void @llvm.lifetime.start.p0(i64 16, ptr %18) #6
  call void @llvm.lifetime.start.p0(i64 16, ptr %19) #6
  call void @llvm.lifetime.start.p0(i64 2, ptr %20) #6
  %23 = load ptr, ptr %8, align 8, !tbaa !3
  %24 = getelementptr inbounds nuw %struct.psa_key_attributes_s, ptr %23, i32 0, i32 0
  %25 = load i16, ptr %24, align 4, !tbaa !16
  store i16 %25, ptr %20, align 2, !tbaa !20
  %26 = load i16, ptr %20, align 2, !tbaa !20
  %27 = zext i16 %26 to i32
  %28 = and i32 %27, 28672
  %29 = icmp eq i32 %28, 16384
  br i1 %29, label %30, label %47

30:                                               ; preds = %6
  %31 = load i64, ptr %10, align 8, !tbaa !10
  %32 = load i64, ptr %12, align 8, !tbaa !10
  %33 = icmp ugt i64 %31, %32
  br i1 %33, label %34, label %35

34:                                               ; preds = %30
  store i32 -138, ptr %7, align 4
  store i32 1, ptr %21, align 4
  br label %99

35:                                               ; preds = %30
  %36 = load ptr, ptr %11, align 8, !tbaa !8
  %37 = load ptr, ptr %9, align 8, !tbaa !8
  %38 = load i64, ptr %10, align 8, !tbaa !10
  call void @llvm.memcpy.p0.p0.i64(ptr align 1 %36, ptr align 1 %37, i64 %38, i1 false)
  %39 = load ptr, ptr %11, align 8, !tbaa !8
  %40 = load i64, ptr %10, align 8, !tbaa !10
  %41 = getelementptr inbounds nuw i8, ptr %39, i64 %40
  %42 = load i64, ptr %12, align 8, !tbaa !10
  %43 = load i64, ptr %10, align 8, !tbaa !10
  %44 = sub i64 %42, %43
  call void @llvm.memset.p0.i64(ptr align 1 %41, i8 0, i64 %44, i1 false)
  %45 = load i64, ptr %10, align 8, !tbaa !10
  %46 = load ptr, ptr %13, align 8, !tbaa !12
  store i64 %45, ptr %46, align 8, !tbaa !10
  store i32 0, ptr %7, align 4
  store i32 1, ptr %21, align 4
  br label %99

47:                                               ; preds = %6
  call void @mbedtls_mpi_init(ptr noundef %16)
  call void @mbedtls_mpi_init(ptr noundef %17)
  call void @mbedtls_mpi_init(ptr noundef %18)
  call void @mbedtls_mpi_init(ptr noundef %19)
  call void @llvm.lifetime.start.p0(i64 8, ptr %22) #6
  %48 = load ptr, ptr %8, align 8, !tbaa !3
  %49 = getelementptr inbounds nuw %struct.psa_key_attributes_s, ptr %48, i32 0, i32 1
  %50 = load i16, ptr %49, align 2, !tbaa !21
  %51 = zext i16 %50 to i32
  %52 = add i32 %51, 7
  %53 = udiv i32 %52, 8
  %54 = zext i32 %53 to i64
  store i64 %54, ptr %22, align 8, !tbaa !10
  %55 = load i64, ptr %22, align 8, !tbaa !10
  %56 = call i32 @mbedtls_psa_ffdh_set_prime_generator(i64 noundef %55, ptr noundef %19, ptr noundef %17)
  store i32 %56, ptr %15, align 4, !tbaa !14
  %57 = load i32, ptr %15, align 4, !tbaa !14
  %58 = icmp ne i32 %57, 0
  br i1 %58, label %59, label %60

59:                                               ; preds = %47
  br label %88

60:                                               ; preds = %47
  br label %61

61:                                               ; preds = %60
  %62 = load ptr, ptr %9, align 8, !tbaa !8
  %63 = load i64, ptr %10, align 8, !tbaa !10
  %64 = call i32 @mbedtls_mpi_read_binary(ptr noundef %18, ptr noundef %62, i64 noundef %63)
  store i32 %64, ptr %14, align 4, !tbaa !14
  %65 = icmp ne i32 %64, 0
  br i1 %65, label %66, label %67

66:                                               ; preds = %61
  br label %88

67:                                               ; preds = %61
  br label %68

68:                                               ; preds = %67
  br label %69

69:                                               ; preds = %68
  br label %70

70:                                               ; preds = %69
  %71 = call i32 @mbedtls_mpi_exp_mod(ptr noundef %16, ptr noundef %17, ptr noundef %18, ptr noundef %19, ptr noundef null)
  store i32 %71, ptr %14, align 4, !tbaa !14
  %72 = icmp ne i32 %71, 0
  br i1 %72, label %73, label %74

73:                                               ; preds = %70
  br label %88

74:                                               ; preds = %70
  br label %75

75:                                               ; preds = %74
  br label %76

76:                                               ; preds = %75
  br label %77

77:                                               ; preds = %76
  %78 = load ptr, ptr %11, align 8, !tbaa !8
  %79 = load i64, ptr %22, align 8, !tbaa !10
  %80 = call i32 @mbedtls_mpi_write_binary(ptr noundef %16, ptr noundef %78, i64 noundef %79)
  store i32 %80, ptr %14, align 4, !tbaa !14
  %81 = icmp ne i32 %80, 0
  br i1 %81, label %82, label %83

82:                                               ; preds = %77
  br label %88

83:                                               ; preds = %77
  br label %84

84:                                               ; preds = %83
  br label %85

85:                                               ; preds = %84
  %86 = load i64, ptr %22, align 8, !tbaa !10
  %87 = load ptr, ptr %13, align 8, !tbaa !12
  store i64 %86, ptr %87, align 8, !tbaa !10
  store i32 0, ptr %14, align 4, !tbaa !14
  br label %88

88:                                               ; preds = %85, %82, %73, %66, %59
  call void @mbedtls_mpi_free(ptr noundef %19)
  call void @mbedtls_mpi_free(ptr noundef %17)
  call void @mbedtls_mpi_free(ptr noundef %18)
  call void @mbedtls_mpi_free(ptr noundef %16)
  %89 = load i32, ptr %15, align 4, !tbaa !14
  %90 = icmp eq i32 %89, 0
  br i1 %90, label %91, label %97

91:                                               ; preds = %88
  %92 = load i32, ptr %14, align 4, !tbaa !14
  %93 = icmp ne i32 %92, 0
  br i1 %93, label %94, label %97

94:                                               ; preds = %91
  %95 = load i32, ptr %14, align 4, !tbaa !14
  %96 = call i32 @mbedtls_to_psa_error(i32 noundef %95)
  store i32 %96, ptr %15, align 4, !tbaa !14
  br label %97

97:                                               ; preds = %94, %91, %88
  %98 = load i32, ptr %15, align 4, !tbaa !14
  store i32 %98, ptr %7, align 4
  store i32 1, ptr %21, align 4
  call void @llvm.lifetime.end.p0(i64 8, ptr %22) #6
  br label %99

99:                                               ; preds = %97, %35, %34
  call void @llvm.lifetime.end.p0(i64 2, ptr %20) #6
  call void @llvm.lifetime.end.p0(i64 16, ptr %19) #6
  call void @llvm.lifetime.end.p0(i64 16, ptr %18) #6
  call void @llvm.lifetime.end.p0(i64 16, ptr %17) #6
  call void @llvm.lifetime.end.p0(i64 16, ptr %16) #6
  call void @llvm.lifetime.end.p0(i64 4, ptr %15) #6
  call void @llvm.lifetime.end.p0(i64 4, ptr %14) #6
  %100 = load i32, ptr %7, align 4
  ret i32 %100
}