; Function Attrs: nounwind uwtable
define hidden i32 @mbedtls_psa_ffdh_export_public_key(ptr noundef readonly captures(none) %0, ptr noundef %1, i64 noundef %2, ptr noundef %3, i64 noundef %4, ptr noundef writeonly captures(none) %5) local_unnamed_addr #0 {
  %7 = alloca %struct.mbedtls_mpi, align 8
  %8 = alloca %struct.mbedtls_mpi, align 8
  %9 = alloca %struct.mbedtls_mpi, align 8
  %10 = alloca %struct.mbedtls_mpi, align 8
  call void @llvm.lifetime.start.p0(i64 16, ptr nonnull %7) #7
  call void @llvm.lifetime.start.p0(i64 16, ptr nonnull %8) #7
  call void @llvm.lifetime.start.p0(i64 16, ptr nonnull %9) #7
  call void @llvm.lifetime.start.p0(i64 16, ptr nonnull %10) #7
  %11 = load i16, ptr %0, align 4, !tbaa !3
  %12 = and i16 %11, 28672
  %13 = icmp eq i16 %12, 16384
  br i1 %13, label %14, label %19

14:                                               ; preds = %6
  %15 = icmp ugt i64 %2, %4
  br i1 %15, label %42, label %16

16:                                               ; preds = %14
  tail call void @llvm.memcpy.p0.p0.i64(ptr align 1 %3, ptr align 1 %1, i64 %2, i1 false)
  %17 = getelementptr inbounds nuw i8, ptr %3, i64 %2
  %18 = sub nuw i64 %4, %2
  tail call void @llvm.memset.p0.i64(ptr align 1 %17, i8 0, i64 %18, i1 false)
  store i64 %2, ptr %5, align 8, !tbaa !10
  br label %42

19:                                               ; preds = %6
  call void @mbedtls_mpi_init(ptr noundef nonnull %7) #7
  call void @mbedtls_mpi_init(ptr noundef nonnull %8) #7
  call void @mbedtls_mpi_init(ptr noundef nonnull %9) #7
  call void @mbedtls_mpi_init(ptr noundef nonnull %10) #7
  %20 = getelementptr inbounds nuw i8, ptr %0, i64 2
  %21 = load i16, ptr %20, align 2, !tbaa !12
  %22 = zext i16 %21 to i64
  %23 = add nuw nsw i64 %22, 7
  %24 = lshr i64 %23, 3
  %25 = add nsw i64 %24, -256
  %26 = call i64 @llvm.fshl.i64(i64 %25, i64 %25, i64 57)
  %27 = icmp ult i64 %26, 7
  br i1 %27, label %switch.hole_check, label %mbedtls_psa_ffdh_set_prime_generator.exit.thread46

switch.hole_check:                                ; preds = %19
  %switch.maskindex = trunc nuw i64 %26 to i8
  %switch.shifted = lshr i8 87, %switch.maskindex
  %switch.lobit = trunc i8 %switch.shifted to i1
  br i1 %switch.lobit, label %switch.lookup, label %mbedtls_psa_ffdh_set_prime_generator.exit.thread46

switch.lookup:                                    ; preds = %switch.hole_check
  %switch.gep = getelementptr inbounds nuw [7 x ptr], ptr @switch.table.mbedtls_psa_ffdh_key_agreement, i64 0, i64 %26
  %switch.load = load ptr, ptr %switch.gep, align 8
  %switch.gep49 = getelementptr inbounds nuw [7 x ptr], ptr @switch.table.mbedtls_psa_ffdh_key_agreement.5, i64 0, i64 %26
  %switch.load50 = load ptr, ptr %switch.gep49, align 8
  %switch.gep51 = getelementptr inbounds nuw [7 x i64], ptr @switch.table.mbedtls_psa_ffdh_key_agreement.6, i64 0, i64 %26
  %switch.load52 = load i64, ptr %switch.gep51, align 8
  %28 = call i32 @mbedtls_mpi_read_binary(ptr noundef nonnull %10, ptr noundef nonnull %switch.load, i64 noundef %switch.load52) #7
  %29 = icmp eq i32 %28, 0
  br i1 %29, label %30, label %mbedtls_psa_ffdh_set_prime_generator.exit

30:                                               ; preds = %switch.lookup
  %31 = call i32 @mbedtls_mpi_read_binary(ptr noundef nonnull %8, ptr noundef nonnull %switch.load50, i64 noundef 1) #7
  %.not.i = icmp eq i32 %31, 0
  br i1 %.not.i, label %mbedtls_psa_ffdh_set_prime_generator.exit.thread, label %mbedtls_psa_ffdh_set_prime_generator.exit

mbedtls_psa_ffdh_set_prime_generator.exit:        ; preds = %switch.lookup, %30
  %.0.i39 = phi i32 [ %31, %30 ], [ %28, %switch.lookup ]
  %32 = call i32 @mbedtls_to_psa_error(i32 noundef %.0.i39) #7
  %.not = icmp eq i32 %32, 0
  br i1 %.not, label %mbedtls_psa_ffdh_set_prime_generator.exit.thread, label %mbedtls_psa_ffdh_set_prime_generator.exit.thread46

mbedtls_psa_ffdh_set_prime_generator.exit.thread: ; preds = %30, %mbedtls_psa_ffdh_set_prime_generator.exit
  %33 = call i32 @mbedtls_mpi_read_binary(ptr noundef nonnull %9, ptr noundef %1, i64 noundef %2) #7
  %.not34 = icmp eq i32 %33, 0
  br i1 %.not34, label %34, label %mbedtls_psa_ffdh_set_prime_generator.exit.thread46

34:                                               ; preds = %mbedtls_psa_ffdh_set_prime_generator.exit.thread
  %35 = call i32 @mbedtls_mpi_exp_mod(ptr noundef nonnull %7, ptr noundef nonnull %8, ptr noundef nonnull %9, ptr noundef nonnull %10, ptr noundef null) #7
  %.not35 = icmp eq i32 %35, 0
  br i1 %.not35, label %36, label %mbedtls_psa_ffdh_set_prime_generator.exit.thread46

36:                                               ; preds = %34
  %37 = call i32 @mbedtls_mpi_write_binary(ptr noundef nonnull %7, ptr noundef %3, i64 noundef %24) #7
  %.not36 = icmp eq i32 %37, 0
  br i1 %.not36, label %38, label %mbedtls_psa_ffdh_set_prime_generator.exit.thread46

38:                                               ; preds = %36
  store i64 %24, ptr %5, align 8, !tbaa !10
  br label %mbedtls_psa_ffdh_set_prime_generator.exit.thread46

mbedtls_psa_ffdh_set_prime_generator.exit.thread46: ; preds = %switch.hole_check, %19, %36, %34, %mbedtls_psa_ffdh_set_prime_generator.exit.thread, %mbedtls_psa_ffdh_set_prime_generator.exit, %38
  %.not44 = phi i1 [ false, %mbedtls_psa_ffdh_set_prime_generator.exit ], [ true, %mbedtls_psa_ffdh_set_prime_generator.exit.thread ], [ true, %34 ], [ true, %36 ], [ true, %38 ], [ false, %19 ], [ false, %switch.hole_check ]
  %.020.i42 = phi i32 [ %32, %mbedtls_psa_ffdh_set_prime_generator.exit ], [ 0, %mbedtls_psa_ffdh_set_prime_generator.exit.thread ], [ 0, %34 ], [ 0, %36 ], [ 0, %38 ], [ -135, %19 ], [ -135, %switch.hole_check ]
  %.027 = phi i32 [ -110, %mbedtls_psa_ffdh_set_prime_generator.exit ], [ %33, %mbedtls_psa_ffdh_set_prime_generator.exit.thread ], [ %35, %34 ], [ %37, %36 ], [ 0, %38 ], [ -110, %19 ], [ -110, %switch.hole_check ]
  call void @mbedtls_mpi_free(ptr noundef nonnull %10) #7
  call void @mbedtls_mpi_free(ptr noundef nonnull %8) #7
  call void @mbedtls_mpi_free(ptr noundef nonnull %9) #7
  call void @mbedtls_mpi_free(ptr noundef nonnull %7) #7
  %39 = icmp ne i32 %.027, 0
  %or.cond = and i1 %.not44, %39
  br i1 %or.cond, label %40, label %42

40:                                               ; preds = %mbedtls_psa_ffdh_set_prime_generator.exit.thread46
  %41 = call i32 @mbedtls_to_psa_error(i32 noundef %.027) #7
  br label %42

42:                                               ; preds = %mbedtls_psa_ffdh_set_prime_generator.exit.thread46, %40, %14, %16
  %.0 = phi i32 [ 0, %16 ], [ -138, %14 ], [ %41, %40 ], [ %.020.i42, %mbedtls_psa_ffdh_set_prime_generator.exit.thread46 ]
  call void @llvm.lifetime.end.p0(i64 16, ptr nonnull %10) #7
  call void @llvm.lifetime.end.p0(i64 16, ptr nonnull %9) #7
  call void @llvm.lifetime.end.p0(i64 16, ptr nonnull %8) #7
  call void @llvm.lifetime.end.p0(i64 16, ptr nonnull %7) #7
  ret i32 %.0
}